target datalayout = "e-m:e-p270:32:32-p271:32:32-p272:64:64-i64:64-i128:128-f80:128-n8:16:32:64-S128"
target triple = "x86_64-pc-linux-gnu"

%struct.bio_st = type { ptr, ptr, ptr, ptr, ptr, i32, i32, i32, i32, i32, ptr, ptr, ptr, %struct.CRYPTO_REF_COUNT, i64, i64, %struct.crypto_ex_data_st }
%struct.CRYPTO_REF_COUNT = type { i32 }
%struct.crypto_ex_data_st = type { ptr, ptr }
%struct.nbio_test_st = type { i32, i32 }

; Function Attrs: nounwind uwtable
define internal i32 @nbiof_write(ptr noundef %0, ptr noundef %1, i32 noundef %2) #0 {
  %4 = alloca i32, align 4
  %5 = alloca ptr, align 8
  %6 = alloca ptr, align 8
  %7 = alloca i32, align 4
  %8 = alloca ptr, align 8
  %9 = alloca i32, align 4
  %10 = alloca i32, align 4
  %11 = alloca i8, align 1
  %12 = alloca i32, align 4
  store ptr %0, ptr %5, align 8, !tbaa !3
  store ptr %1, ptr %6, align 8, !tbaa !8
  store i32 %2, ptr %7, align 4, !tbaa !10
  call void @llvm.lifetime.start.p0(i64 8, ptr %8) #3
  call void @llvm.lifetime.start.p0(i64 4, ptr %9) #3
  store i32 0, ptr %9, align 4, !tbaa !10
  call void @llvm.lifetime.start.p0(i64 4, ptr %10) #3
  call void @llvm.lifetime.start.p0(i64 1, ptr %11) #3
  %13 = load ptr, ptr %6, align 8, !tbaa !8
  %14 = icmp eq ptr %13, null
  br i1 %14, label %18, label %15

15:                                               ; preds = %3
  %16 = load i32, ptr %7, align 4, !tbaa !10
  %17 = icmp sle i32 %16, 0
  br i1 %17, label %18, label %19

18:                                               ; preds = %15, %3
  store i32 0, ptr %4, align 4
  store i32 1, ptr %12, align 4
  br label %76

19:                                               ; preds = %15
  %20 = load ptr, ptr %5, align 8, !tbaa !3
  %21 = getelementptr inbounds nuw %struct.bio_st, ptr %20, i32 0, i32 11
  %22 = load ptr, ptr %21, align 8, !tbaa !12
  %23 = icmp eq ptr %22, null
  br i1 %23, label %24, label %25

24:                                               ; preds = %19
  store i32 0, ptr %4, align 4
  store i32 1, ptr %12, align 4
  br label %76

25:                                               ; preds = %19
  %26 = load ptr, ptr %5, align 8, !tbaa !3
  %27 = getelementptr inbounds nuw %struct.bio_st, ptr %26, i32 0, i32 10
  %28 = load ptr, ptr %27, align 8, !tbaa !20
  store ptr %28, ptr %8, align 8, !tbaa !21
  %29 = load ptr, ptr %5, align 8, !tbaa !3
  call void @BIO_clear_flags(ptr noundef %29, i32 noundef 15)
  %30 = load ptr, ptr %8, align 8, !tbaa !21
  %31 = getelementptr inbounds nuw %struct.nbio_test_st, ptr %30, i32 0, i32 1
  %32 = load i32, ptr %31, align 4, !tbaa !23
  %33 = icmp sgt i32 %32, 0
  br i1 %33, label %34, label %40

34:                                               ; preds = %25
  %35 = load ptr, ptr %8, align 8, !tbaa !21
  %36 = getelementptr inbounds nuw %struct.nbio_test_st, ptr %35, i32 0, i32 1
  %37 = load i32, ptr %36, align 4, !tbaa !23
  store i32 %37, ptr %10, align 4, !tbaa !10
  %38 = load ptr, ptr %8, align 8, !tbaa !21
  %39 = getelementptr inbounds nuw %struct.nbio_test_st, ptr %38, i32 0, i32 1
  store i32 0, ptr %39, align 4, !tbaa !23
  br label %48

40:                                               ; preds = %25
  %41 = call i32 @RAND_priv_bytes(ptr noundef %11, i32 noundef 1)
  %42 = icmp sle i32 %41, 0
  br i1 %42, label %43, label %44

43:                                               ; preds = %40
  store i32 -1, ptr %4, align 4
  store i32 1, ptr %12, align 4
  br label %76

44:                                               ; preds = %40
  %45 = load i8, ptr %11, align 1, !tbaa !25
  %46 = zext i8 %45 to i32
  %47 = and i32 %46, 7
  store i32 %47, ptr %10, align 4, !tbaa !10
  br label %48

48:                                               ; preds = %44, %34
  %49 = load i32, ptr %7, align 4, !tbaa !10
  %50 = load i32, ptr %10, align 4, !tbaa !10
  %51 = icmp sgt i32 %49, %50
  br i1 %51, label %52, label %54

52:                                               ; preds = %48
  %53 = load i32, ptr %10, align 4, !tbaa !10
  store i32 %53, ptr %7, align 4, !tbaa !10
  br label %54

54:                                               ; preds = %52, %48
  %55 = load i32, ptr %10, align 4, !tbaa !10
  %56 = icmp eq i32 %55, 0
  br i1 %56, label %57, label %59

57:                                               ; preds = %54
  store i32 -1, ptr %9, align 4, !tbaa !10
  %58 = load ptr, ptr %5, align 8, !tbaa !3
  call void @BIO_set_flags(ptr noundef %58, i32 noundef 10)
  br label %74

59:                                               ; preds = %54
  %60 = load ptr, ptr %5, align 8, !tbaa !3
  %61 = getelementptr inbounds nuw %struct.bio_st, ptr %60, i32 0, i32 11
  %62 = load ptr, ptr %61, align 8, !tbaa !12
  %63 = load ptr, ptr %6, align 8, !tbaa !8
  %64 = load i32, ptr %7, align 4, !tbaa !10
  %65 = call i32 @BIO_write(ptr noundef %62, ptr noundef %63, i32 noundef %64)
  store i32 %65, ptr %9, align 4, !tbaa !10
  %66 = load i32, ptr %9, align 4, !tbaa !10
  %67 = icmp slt i32 %66, 0
  br i1 %67, label %68, label %73

68:                                               ; preds = %59
  %69 = load ptr, ptr %5, align 8, !tbaa !3
  call void @BIO_copy_next_retry(ptr noundef %69)
  %70 = load i32, ptr %7, align 4, !tbaa !10
  %71 = load ptr, ptr %8, align 8, !tbaa !21
  %72 = getelementptr inbounds nuw %struct.nbio_test_st, ptr %71, i32 0, i32 1
  store i32 %70, ptr %72, align 4, !tbaa !23
  br label %73

73:                                               ; preds = %68, %59
  br label %74

74:                                               ; preds = %73, %57
  %75 = load i32, ptr %9, align 4, !tbaa !10
  store i32 %75, ptr %4, align 4
  store i32 1, ptr %12, align 4
  br label %76

76:                                               ; preds = %74, %43, %24, %18
  call void @llvm.lifetime.end.p0(i64 1, ptr %11) #3
  call void @llvm.lifetime.end.p0(i64 4, ptr %10) #3
  call void @llvm.lifetime.end.p0(i64 4, ptr %9) #3
  call void @llvm.lifetime.end.p0(i64 8, ptr %8) #3
  %77 = load i32, ptr %4, align 4
  ret i32 %77
}