; Function Attrs: nounwind uwtable
define internal i32 @nbiof_write(ptr noundef %0, ptr noundef %1, i32 noundef %2) #2 {
  %4 = alloca i8, align 1
  call void @llvm.lifetime.start.p0(i64 1, ptr nonnull %4) #5
  %5 = icmp eq ptr %1, null
  %6 = icmp slt i32 %2, 1
  %or.cond = or i1 %5, %6
  br i1 %or.cond, label %31, label %7

7:                                                ; preds = %3
  %8 = getelementptr inbounds nuw i8, ptr %0, i64 72
  %9 = load ptr, ptr %8, align 8, !tbaa !3
  %10 = icmp eq ptr %9, null
  br i1 %10, label %31, label %11

11:                                               ; preds = %7
  %12 = getelementptr inbounds nuw i8, ptr %0, i64 64
  %13 = load ptr, ptr %12, align 8, !tbaa !17
  tail call void @BIO_clear_flags(ptr noundef nonnull %0, i32 noundef 15) #5
  %14 = getelementptr inbounds nuw i8, ptr %13, i64 4
  %15 = load i32, ptr %14, align 4, !tbaa !18
  %16 = icmp sgt i32 %15, 0
  br i1 %16, label %.thread, label %17

.thread:                                          ; preds = %11
  store i32 0, ptr %14, align 4, !tbaa !18
  %spec.select30 = tail call i32 @llvm.umin.i32(i32 %2, i32 %15)
  br label %26

17:                                               ; preds = %11
  %18 = call i32 @RAND_priv_bytes(ptr noundef nonnull %4, i32 noundef 1) #5
  %19 = icmp slt i32 %18, 1
  br i1 %19, label %31, label %20

20:                                               ; preds = %17
  %21 = load i8, ptr %4, align 1, !tbaa !20
  %22 = and i8 %21, 7
  %23 = zext nneg i8 %22 to i32
  %spec.select = call i32 @llvm.umin.i32(i32 %2, i32 %23)
  %24 = icmp eq i8 %22, 0
  br i1 %24, label %25, label %26

25:                                               ; preds = %20
  call void @BIO_set_flags(ptr noundef nonnull %0, i32 noundef 10) #5
  br label %31

26:                                               ; preds = %.thread, %20
  %spec.select31 = phi i32 [ %spec.select30, %.thread ], [ %spec.select, %20 ]
  %27 = load ptr, ptr %8, align 8, !tbaa !3
  %28 = call i32 @BIO_write(ptr noundef %27, ptr noundef nonnull %1, i32 noundef %spec.select31) #5
  %29 = icmp slt i32 %28, 0
  br i1 %29, label %30, label %31

30:                                               ; preds = %26
  call void @BIO_copy_next_retry(ptr noundef nonnull %0) #5
  store i32 %spec.select31, ptr %14, align 4, !tbaa !18
  br label %31

31:                                               ; preds = %25, %30, %26, %17, %7, %3
  %.023 = phi i32 [ 0, %3 ], [ 0, %7 ], [ -1, %17 ], [ -1, %25 ], [ %28, %30 ], [ %28, %26 ]
  call void @llvm.lifetime.end.p0(i64 1, ptr nonnull %4) #5
  ret i32 %.023
}